; Function Attrs: nounwind uwtable
define internal fastcc i64 @SetEpochTimestamp() unnamed_addr #0 {
  %1 = alloca %struct.tm, align 8
  call void @llvm.lifetime.start.p0(i64 56, ptr nonnull %1) #10
  %2 = call i32 @GetEpochTime(ptr noundef nonnull %1) #10
  %3 = icmp slt i32 %2, 0
  br i1 %3, label %tm2timestamp.exit, label %4

4:                                                ; preds = %0
  %5 = getelementptr inbounds nuw i8, ptr %1, i64 20
  %6 = load i32, ptr %5, align 4
  %7 = icmp sgt i32 %6, -4713
  br i1 %7, label %13, label %8

8:                                                ; preds = %4
  %9 = icmp eq i32 %6, -4713
  %10 = getelementptr inbounds nuw i8, ptr %1, i64 16
  %11 = load i32, ptr %10, align 8
  %12 = icmp sgt i32 %11, 10
  %or.cond = select i1 %9, i1 %12, i1 false
  br i1 %or.cond, label %.thread.i, label %tm2timestamp.exit

13:                                               ; preds = %4
  %14 = icmp slt i32 %6, 5874898
  br i1 %14, label %..thread_crit_edge.i, label %15

..thread_crit_edge.i:                             ; preds = %13
  %.phi.trans.insert.i = getelementptr inbounds nuw i8, ptr %1, i64 16
  %.pre.i = load i32, ptr %.phi.trans.insert.i, align 8
  br label %.thread.i

15:                                               ; preds = %13
  %16 = icmp eq i32 %6, 5874898
  %17 = getelementptr inbounds nuw i8, ptr %1, i64 16
  %18 = load i32, ptr %17, align 8
  %19 = icmp slt i32 %18, 6
  %or.cond8 = select i1 %16, i1 %19, i1 false
  br i1 %or.cond8, label %.thread.i, label %tm2timestamp.exit

.thread.i:                                        ; preds = %15, %8, %..thread_crit_edge.i
  %20 = phi i32 [ %.pre.i, %..thread_crit_edge.i ], [ %11, %8 ], [ %18, %15 ]
  %21 = getelementptr inbounds nuw i8, ptr %1, i64 12
  %22 = load i32, ptr %21, align 4
  %23 = call i32 @date2j(i32 noundef %6, i32 noundef %20, i32 noundef %22) #10
  %24 = call i32 @date2j(i32 noundef 2000, i32 noundef 1, i32 noundef 1) #10
  %25 = sub i32 %23, %24
  %26 = sext i32 %25 to i64
  %27 = call { i64, i1 } @llvm.smul.with.overflow.i64(i64 range(i64 -2147483648, 2147483648) %26, i64 86400000000)
  %28 = extractvalue { i64, i1 } %27, 1
  %29 = extractvalue { i64, i1 } %27, 0
  br i1 %28, label %tm2timestamp.exit, label %30

30:                                               ; preds = %.thread.i
  %31 = load i32, ptr %1, align 8
  %32 = getelementptr inbounds nuw i8, ptr %1, i64 4
  %33 = load i32, ptr %32, align 4
  %34 = getelementptr inbounds nuw i8, ptr %1, i64 8
  %35 = load i32, ptr %34, align 8
  %36 = mul i32 %35, 60
  %37 = add i32 %36, %33
  %38 = mul i32 %37, 60
  %39 = add i32 %38, %31
  %40 = sext i32 %39 to i64
  %41 = mul nsw i64 %40, 1000000
  %42 = add i64 %29, %41
  br label %tm2timestamp.exit

tm2timestamp.exit:                                ; preds = %30, %.thread.i, %15, %8, %0
  %.0 = phi i64 [ 0, %0 ], [ %29, %.thread.i ], [ undef, %15 ], [ undef, %8 ], [ %42, %30 ]
  call void @llvm.lifetime.end.p0(i64 56, ptr nonnull %1) #10
  ret i64 %.0
}